target datalayout = "e-m:e-p270:32:32-p271:32:32-p272:64:64-i64:64-i128:128-f80:128-n8:16:32:64-S128"
target triple = "x86_64-pc-linux-gnu"

%struct.u_printf_stream_handler = type { ptr, ptr }
%struct.u_localized_print_string = type { ptr, i32, i32, %struct.ULocaleBundle }
%struct.ULocaleBundle = type { ptr, [5 x ptr], i8 }

@.str = private unnamed_addr constant [12 x i8] c"en_US_POSIX\00", align 1
@_ZL24g_sprintf_stream_handler = internal constant %struct.u_printf_stream_handler { ptr @_ZL15u_sprintf_writePvPKDsi, ptr @_ZL25u_sprintf_pad_and_justifyPvPK18u_printf_spec_infoPKDsi }, align 8

; Function Attrs: mustprogress uwtable
define i32 @u_vsnprintf_u_77(ptr noundef %0, i32 noundef %1, ptr noundef %2, ptr noundef %3) #0 {
  %5 = alloca i32, align 4
  %6 = alloca ptr, align 8
  %7 = alloca i32, align 4
  %8 = alloca ptr, align 8
  %9 = alloca ptr, align 8
  %10 = alloca i32, align 4
  %11 = alloca i32, align 4
  %12 = alloca %struct.u_localized_print_string, align 8
  %13 = alloca i32, align 4
  store ptr %0, ptr %6, align 8, !tbaa !3
  store i32 %1, ptr %7, align 4, !tbaa !10
  store ptr %2, ptr %8, align 8, !tbaa !3
  store ptr %3, ptr %9, align 8, !tbaa !12
  call void @llvm.lifetime.start.p0(i64 4, ptr %10) #6
  store i32 0, ptr %10, align 4, !tbaa !10
  call void @llvm.lifetime.start.p0(i64 4, ptr %11) #6
  store i32 0, ptr %11, align 4, !tbaa !10
  call void @llvm.lifetime.start.p0(i64 72, ptr %12) #6
  %14 = load i32, ptr %7, align 4, !tbaa !10
  %15 = icmp slt i32 %14, 0
  br i1 %15, label %16, label %17

16:                                               ; preds = %4
  store i32 2147483647, ptr %7, align 4, !tbaa !10
  br label %17

17:                                               ; preds = %16, %4
  %18 = load ptr, ptr %6, align 8, !tbaa !3
  %19 = getelementptr inbounds nuw %struct.u_localized_print_string, ptr %12, i32 0, i32 0
  store ptr %18, ptr %19, align 8, !tbaa !14
  %20 = load i32, ptr %7, align 4, !tbaa !10
  %21 = getelementptr inbounds nuw %struct.u_localized_print_string, ptr %12, i32 0, i32 2
  store i32 %20, ptr %21, align 4, !tbaa !17
  %22 = load i32, ptr %7, align 4, !tbaa !10
  %23 = getelementptr inbounds nuw %struct.u_localized_print_string, ptr %12, i32 0, i32 1
  store i32 %22, ptr %23, align 8, !tbaa !18
  %24 = getelementptr inbounds nuw %struct.u_localized_print_string, ptr %12, i32 0, i32 3
  %25 = call ptr @u_locbund_init_77(ptr noundef %24, ptr noundef @.str)
  %26 = icmp eq ptr %25, null
  br i1 %26, label %27, label %28

27:                                               ; preds = %17
  store i32 0, ptr %5, align 4
  store i32 1, ptr %13, align 4
  br label %53

28:                                               ; preds = %17
  %29 = load ptr, ptr %8, align 8, !tbaa !3
  %30 = getelementptr inbounds nuw %struct.u_localized_print_string, ptr %12, i32 0, i32 3
  %31 = load ptr, ptr %9, align 8, !tbaa !12
  %32 = call i32 @u_printf_parse_77(ptr noundef @_ZL24g_sprintf_stream_handler, ptr noundef %29, ptr noundef %12, ptr noundef %12, ptr noundef %30, ptr noundef %10, ptr noundef %31)
  store i32 %32, ptr %11, align 4, !tbaa !10
  %33 = getelementptr inbounds nuw %struct.u_localized_print_string, ptr %12, i32 0, i32 1
  %34 = load i32, ptr %33, align 8, !tbaa !18
  %35 = icmp sgt i32 %34, 0
  br i1 %35, label %36, label %45

36:                                               ; preds = %28
  %37 = load ptr, ptr %6, align 8, !tbaa !3
  %38 = getelementptr inbounds nuw %struct.u_localized_print_string, ptr %12, i32 0, i32 2
  %39 = load i32, ptr %38, align 4, !tbaa !17
  %40 = getelementptr inbounds nuw %struct.u_localized_print_string, ptr %12, i32 0, i32 1
  %41 = load i32, ptr %40, align 8, !tbaa !18
  %42 = sub nsw i32 %39, %41
  %43 = sext i32 %42 to i64
  %44 = getelementptr inbounds i16, ptr %37, i64 %43
  store i16 0, ptr %44, align 2, !tbaa !19
  br label %45

45:                                               ; preds = %36, %28
  %46 = getelementptr inbounds nuw %struct.u_localized_print_string, ptr %12, i32 0, i32 3
  call void @u_locbund_close_77(ptr noundef %46)
  %47 = load i32, ptr %11, align 4, !tbaa !10
  %48 = icmp slt i32 %47, 0
  br i1 %48, label %49, label %51

49:                                               ; preds = %45
  %50 = load i32, ptr %11, align 4, !tbaa !10
  store i32 %50, ptr %5, align 4
  store i32 1, ptr %13, align 4
  br label %53

51:                                               ; preds = %45
  %52 = load i32, ptr %10, align 4, !tbaa !10
  store i32 %52, ptr %5, align 4
  store i32 1, ptr %13, align 4
  br label %53

53:                                               ; preds = %51, %49, %27
  call void @llvm.lifetime.end.p0(i64 72, ptr %12) #6
  call void @llvm.lifetime.end.p0(i64 4, ptr %11) #6
  call void @llvm.lifetime.end.p0(i64 4, ptr %10) #6
  %54 = load i32, ptr %5, align 4
  ret i32 %54
}

; Function Attrs: mustprogress uwtable
define i32 @u_vsnprintf_77(ptr noundef %0, i32 noundef %1, ptr noundef %2, ptr noundef %3) #0 {
  %5 = alloca i32, align 4
  %6 = alloca ptr, align 8
  %7 = alloca i32, align 4
  %8 = alloca ptr, align 8
  %9 = alloca ptr, align 8
  %10 = alloca i32, align 4
  %11 = alloca ptr, align 8
  %12 = alloca [128 x i16], align 16
  %13 = alloca i32, align 4
  %14 = alloca i32, align 4
  store ptr %0, ptr %6, align 8, !tbaa !3
  store i32 %1, ptr %7, align 4, !tbaa !10
  store ptr %2, ptr %8, align 8, !tbaa !8
  store ptr %3, ptr %9, align 8, !tbaa !12
  call void @llvm.lifetime.start.p0(i64 4, ptr %10) #6
  call void @llvm.lifetime.start.p0(i64 8, ptr %11) #6
  call void @llvm.lifetime.start.p0(i64 256, ptr %12) #6
  call void @llvm.lifetime.start.p0(i64 4, ptr %13) #6
  %15 = load ptr, ptr %8, align 8, !tbaa !8
  %16 = call i64 @strlen(ptr noundef %15) #7
  %17 = trunc i64 %16 to i32
  %18 = add nsw i32 %17, 1
  store i32 %18, ptr %13, align 4, !tbaa !10
  %19 = load i32, ptr %13, align 4, !tbaa !10
  %20 = icmp sge i32 %19, 64
  br i1 %20, label %21, label %30

21:                                               ; preds = %4
  %22 = load i32, ptr %13, align 4, !tbaa !10
  %23 = sext i32 %22 to i64
  %24 = mul i64 %23, 2
  %25 = call noalias ptr @uprv_malloc_77(i64 noundef %24) #8
  store ptr %25, ptr %11, align 8, !tbaa !3
  %26 = load ptr, ptr %11, align 8, !tbaa !3
  %27 = icmp eq ptr %26, null
  br i1 %27, label %28, label %29

28:                                               ; preds = %21
  store i32 0, ptr %5, align 4
  store i32 1, ptr %14, align 4
  br label %48

29:                                               ; preds = %21
  br label %32

30:                                               ; preds = %4
  %31 = getelementptr inbounds [128 x i16], ptr %12, i64 0, i64 0
  store ptr %31, ptr %11, align 8, !tbaa !3
  br label %32

32:                                               ; preds = %30, %29
  %33 = load ptr, ptr %8, align 8, !tbaa !8
  %34 = load ptr, ptr %11, align 8, !tbaa !3
  %35 = load i32, ptr %13, align 4, !tbaa !10
  call void @u_charsToUChars_77(ptr noundef %33, ptr noundef %34, i32 noundef %35)
  %36 = load ptr, ptr %6, align 8, !tbaa !3
  %37 = load i32, ptr %7, align 4, !tbaa !10
  %38 = load ptr, ptr %11, align 8, !tbaa !3
  %39 = load ptr, ptr %9, align 8, !tbaa !12
  %40 = call i32 @u_vsnprintf_u_77(ptr noundef %36, i32 noundef %37, ptr noundef %38, ptr noundef %39)
  store i32 %40, ptr %10, align 4, !tbaa !10
  %41 = load ptr, ptr %11, align 8, !tbaa !3
  %42 = getelementptr inbounds [128 x i16], ptr %12, i64 0, i64 0
  %43 = icmp ne ptr %41, %42
  br i1 %43, label %44, label %46

44:                                               ; preds = %32
  %45 = load ptr, ptr %11, align 8, !tbaa !3
  call void @uprv_free_77(ptr noundef %45)
  br label %46

46:                                               ; preds = %44, %32
  %47 = load i32, ptr %10, align 4, !tbaa !10
  store i32 %47, ptr %5, align 4
  store i32 1, ptr %14, align 4
  br label %48

48:                                               ; preds = %46, %28
  call void @llvm.lifetime.end.p0(i64 4, ptr %13) #6
  call void @llvm.lifetime.end.p0(i64 256, ptr %12) #6
  call void @llvm.lifetime.end.p0(i64 8, ptr %11) #6
  call void @llvm.lifetime.end.p0(i64 4, ptr %10) #6
  %49 = load i32, ptr %5, align 4
  ret i32 %49
}