; Function Attrs: mustprogress uwtable
define i32 @u_vsnprintf_77(ptr noundef %0, i32 noundef %1, ptr noundef %2, ptr noundef %3) local_unnamed_addr #0 {
  %5 = alloca i32, align 4
  %6 = alloca %struct.u_localized_print_string, align 8
  %7 = alloca [128 x i16], align 16
  call void @llvm.lifetime.start.p0(i64 256, ptr nonnull %7) #7
  %8 = tail call i64 @strlen(ptr noundef nonnull dereferenceable(1) %2) #8
  %9 = trunc i64 %8 to i32
  %10 = add nsw i32 %9, 1
  %11 = icmp sgt i32 %9, 62
  br i1 %11, label %12, label %17

12:                                               ; preds = %4
  %13 = shl nuw i32 %10, 1
  %14 = zext i32 %13 to i64
  %15 = tail call noalias ptr @uprv_malloc_77(i64 noundef %14) #9
  %16 = icmp eq ptr %15, null
  br i1 %16, label %36, label %17

17:                                               ; preds = %4, %12
  %.014 = phi ptr [ %15, %12 ], [ %7, %4 ]
  call void @u_charsToUChars_77(ptr noundef nonnull %2, ptr noundef nonnull %.014, i32 noundef %10)
  call void @llvm.lifetime.start.p0(i64 4, ptr nonnull %5) #7
  store i32 0, ptr %5, align 4, !tbaa !3
  call void @llvm.lifetime.start.p0(i64 72, ptr nonnull %6) #7
  %spec.store.select.i = call i32 @llvm.umin.i32(i32 %1, i32 2147483647)
  store ptr %0, ptr %6, align 8, !tbaa !7
  %18 = getelementptr inbounds nuw i8, ptr %6, i64 12
  store i32 %spec.store.select.i, ptr %18, align 4, !tbaa !13
  %19 = getelementptr inbounds nuw i8, ptr %6, i64 8
  store i32 %spec.store.select.i, ptr %19, align 8, !tbaa !14
  %20 = getelementptr inbounds nuw i8, ptr %6, i64 16
  %21 = call ptr @u_locbund_init_77(ptr noundef nonnull %20, ptr noundef nonnull @.str)
  %22 = icmp eq ptr %21, null
  br i1 %22, label %u_vsnprintf_u_77.exit, label %23

23:                                               ; preds = %17
  %24 = call i32 @u_printf_parse_77(ptr noundef nonnull @_ZL24g_sprintf_stream_handler, ptr noundef nonnull %.014, ptr noundef nonnull %6, ptr noundef nonnull %6, ptr noundef nonnull %20, ptr noundef nonnull %5, ptr noundef %3)
  %25 = load i32, ptr %19, align 8, !tbaa !14
  %26 = icmp sgt i32 %25, 0
  br i1 %26, label %27, label %32

27:                                               ; preds = %23
  %28 = load i32, ptr %18, align 4, !tbaa !13
  %29 = sub nsw i32 %28, %25
  %30 = sext i32 %29 to i64
  %31 = getelementptr inbounds i16, ptr %0, i64 %30
  store i16 0, ptr %31, align 2, !tbaa !15
  br label %32

32:                                               ; preds = %27, %23
  call void @u_locbund_close_77(ptr noundef nonnull %20)
  %33 = icmp slt i32 %24, 0
  %34 = load i32, ptr %5, align 4
  %spec.select.i = select i1 %33, i32 %24, i32 %34
  br label %u_vsnprintf_u_77.exit

u_vsnprintf_u_77.exit:                            ; preds = %17, %32
  %.0.i = phi i32 [ 0, %17 ], [ %spec.select.i, %32 ]
  call void @llvm.lifetime.end.p0(i64 72, ptr nonnull %6) #7
  call void @llvm.lifetime.end.p0(i64 4, ptr nonnull %5) #7
  %.not = icmp eq ptr %.014, %7
  br i1 %.not, label %36, label %35

35:                                               ; preds = %u_vsnprintf_u_77.exit
  call void @uprv_free_77(ptr noundef nonnull %.014)
  br label %36

36:                                               ; preds = %u_vsnprintf_u_77.exit, %35, %12
  %.0 = phi i32 [ 0, %12 ], [ %.0.i, %35 ], [ %.0.i, %u_vsnprintf_u_77.exit ]
  call void @llvm.lifetime.end.p0(i64 256, ptr nonnull %7) #7
  ret i32 %.0
}